; Function Attrs: mustprogress uwtable
define noundef nonnull align 8 dereferenceable(64) ptr @_ZN6icu_7513LocaleMatcher7Builder18setNoDefaultLocaleEv(ptr noundef nonnull returned align 8 dereferenceable(64) %this) local_unnamed_addr #2 align 2 {
entry:
  %0 = load i32, ptr %this, align 8
  %cmp.i = icmp slt i32 %0, 1
  br i1 %cmp.i, label %if.end, label %return

if.end:                                           ; preds = %entry
  %defaultLocale_ = getelementptr inbounds i8, ptr %this, i64 24
  %1 = load ptr, ptr %defaultLocale_, align 8
  %isnull = icmp eq ptr %1, null
  br i1 %isnull, label %delete.end, label %delete.notnull

delete.notnull:                                   ; preds = %if.end
  %vtable = load ptr, ptr %1, align 8
  %vfn = getelementptr inbounds i8, ptr %vtable, i64 8
  %2 = load ptr, ptr %vfn, align 8
  tail call void %2(ptr noundef nonnull align 8 dereferenceable(217) %1) #15
  br label %delete.end

delete.end:                                       ; preds = %delete.notnull, %if.end
  store ptr null, ptr %defaultLocale_, align 8
  %withDefault_ = getelementptr inbounds i8, ptr %this, i64 32
  store i8 0, ptr %withDefault_, align 8
  br label %return

return:                                           ; preds = %entry, %delete.end
  ret ptr %this
}